target datalayout = "e-m:e-p270:32:32-p271:32:32-p272:64:64-i64:64-i128:128-f80:128-n8:16:32:64-S128"
target triple = "x86_64-pc-linux-gnu"

; Function Attrs: nounwind uwtable
define i32 @nghttp2_check_path(ptr noundef %0, i64 noundef %1) #0 {
  %3 = alloca i32, align 4
  %4 = alloca ptr, align 8
  %5 = alloca i64, align 8
  %6 = alloca ptr, align 8
  %7 = alloca i32, align 4
  store ptr %0, ptr %4, align 8, !tbaa !3
  store i64 %1, ptr %5, align 8, !tbaa !12
  call void @llvm.lifetime.start.p0(i64 8, ptr %6) #5
  %8 = load ptr, ptr %4, align 8, !tbaa !3
  %9 = load i64, ptr %5, align 8, !tbaa !12
  %10 = getelementptr inbounds nuw i8, ptr %8, i64 %9
  store ptr %10, ptr %6, align 8, !tbaa !3
  br label %11

11:                                               ; preds = %24, %2
  %12 = load ptr, ptr %4, align 8, !tbaa !3
  %13 = load ptr, ptr %6, align 8, !tbaa !3
  %14 = icmp ne ptr %12, %13
  br i1 %14, label %15, label %27

15:                                               ; preds = %11
  %16 = load ptr, ptr %4, align 8, !tbaa !3
  %17 = load i8, ptr %16, align 1, !tbaa !14
  %18 = zext i8 %17 to i64
  %19 = getelementptr inbounds nuw [256 x i8], ptr @VALID_PATH_CHARS, i64 0, i64 %18
  %20 = load i8, ptr %19, align 1, !tbaa !14
  %21 = icmp ne i8 %20, 0
  br i1 %21, label %23, label %22

22:                                               ; preds = %15
  store i32 0, ptr %3, align 4
  store i32 1, ptr %7, align 4
  br label %28

23:                                               ; preds = %15
  br label %24

24:                                               ; preds = %23
  %25 = load ptr, ptr %4, align 8, !tbaa !3
  %26 = getelementptr inbounds nuw i8, ptr %25, i32 1
  store ptr %26, ptr %4, align 8, !tbaa !3
  br label %11, !llvm.loop !22

27:                                               ; preds = %11
  store i32 1, ptr %3, align 4
  store i32 1, ptr %7, align 4
  br label %28

28:                                               ; preds = %27, %22
  call void @llvm.lifetime.end.p0(i64 8, ptr %6) #5
  %29 = load i32, ptr %3, align 4
  ret i32 %29
}