; Function Attrs: nofree norecurse nosync nounwind memory(argmem: read) uwtable
define range(i32 0, 2) i32 @nghttp2_check_path(ptr noundef readonly %0, i64 noundef %1) local_unnamed_addr #8 {
  %3 = getelementptr inbounds nuw i8, ptr %0, i64 %1
  %.not8 = icmp samesign eq i64 %1, 0
  br i1 %.not8, label %._crit_edge, label %.lr.ph

4:                                                ; preds = %.lr.ph
  %5 = getelementptr inbounds nuw i8, ptr %.069, i64 1
  %.not = icmp eq ptr %5, %3
  br i1 %.not, label %._crit_edge, label %.lr.ph, !llvm.loop !13

.lr.ph:                                           ; preds = %2, %4
  %.069 = phi ptr [ %5, %4 ], [ %0, %2 ]
  %6 = load i8, ptr %.069, align 1, !tbaa !3
  %7 = zext i8 %6 to i64
  %8 = getelementptr inbounds nuw [256 x i8], ptr @VALID_PATH_CHARS, i64 0, i64 %7
  %9 = load i8, ptr %8, align 1, !tbaa !3
  %.not7 = icmp eq i8 %9, 0
  br i1 %.not7, label %._crit_edge, label %4

._crit_edge:                                      ; preds = %.lr.ph, %4, %2
  %.0 = phi i32 [ 1, %2 ], [ 1, %4 ], [ 0, %.lr.ph ]
  ret i32 %.0
}